; Function Attrs: nounwind uwtable
define internal ptr @lxb_html_tokenizer_state_markup_declaration_comment(ptr nocapture noundef %0, ptr noundef %1, ptr nocapture readnone %2) #1 {
  %4 = load i8, ptr %1, align 1
  %5 = icmp eq i8 %4, 45
  br i1 %5, label %6, label %8

6:                                                ; preds = %3
  %7 = getelementptr inbounds i8, ptr %1, i64 1
  br label %12

8:                                                ; preds = %3
  %9 = getelementptr inbounds i8, ptr %0, i64 88
  %10 = load ptr, ptr %9, align 8
  %11 = tail call ptr @lxb_html_tokenizer_error_add(ptr noundef %10, ptr noundef nonnull %1, i32 noundef 18) #5
  br label %12

12:                                               ; preds = %8, %6
  %lxb_html_tokenizer_state_bogus_comment_before.sink = phi ptr [ @lxb_html_tokenizer_state_comment_before_start, %6 ], [ @lxb_html_tokenizer_state_bogus_comment_before, %8 ]
  %.0 = phi ptr [ %7, %6 ], [ %1, %8 ]
  store ptr %lxb_html_tokenizer_state_bogus_comment_before.sink, ptr %0, align 8
  ret ptr %.0
}